; Function Attrs: mustprogress uwtable
define hidden noundef zeroext i1 @_ZN4lean21is_quot_primitive_appERKNS_16elab_environmentERKNS_4exprE(ptr noundef nonnull align 8 dereferenceable(8) %0, ptr noundef nonnull align 8 dereferenceable(8) %1) local_unnamed_addr #0 {
  %3 = tail call noundef nonnull align 8 dereferenceable(8) ptr @_ZN4lean10get_app_fnERKNS_4exprE(ptr noundef nonnull align 8 dereferenceable(8) %1)
  %4 = load ptr, ptr %3, align 8, !tbaa !3
  %5 = getelementptr i8, ptr %4, i64 4
  %.val.i.i.i.i.i = load i32, ptr %5, align 4
  %.mask.i.i = and i32 %.val.i.i.i.i.i, -16777216
  %6 = icmp eq i32 %.mask.i.i, 67108864
  br i1 %6, label %7, label %10

7:                                                ; preds = %2
  %8 = getelementptr inbounds nuw i8, ptr %4, i64 8
  %9 = tail call noundef zeroext i1 @_ZN4lean17is_quot_primitiveERKNS_16elab_environmentERKNS_4nameE(ptr noundef nonnull align 8 dereferenceable(8) %0, ptr noundef nonnull align 8 dereferenceable(8) %8)
  br label %10

10:                                               ; preds = %7, %2
  %11 = phi i1 [ false, %2 ], [ %9, %7 ]
  ret i1 %11
}